; Function Attrs: mustprogress noreturn uwtable
define void @_Z20gmx_fatal_collectiveiPKciP10tmpi_comm_bS0_z(i32 noundef %0, ptr noundef %1, i32 noundef %2, ptr noundef %3, i1 noundef zeroext %4, ptr noundef %5, ...) local_unnamed_addr #5 personality ptr @__gxx_personality_v0 {
  %7 = alloca ptr, align 8
  %8 = alloca [1 x %struct.__va_list_tag], align 16
  %9 = alloca i32, align 4
  %10 = alloca %"class.std::filesystem::__cxx11::path", align 8
  store ptr %1, ptr %7, align 8
  %11 = load ptr, ptr @TMPI_COMM_WORLD, align 8
  %12 = call noundef i32 @_Z17tMPI_Comm_compareP10tmpi_comm_S0_Pi(ptr noundef %3, ptr noundef %11, ptr noundef nonnull %9)
  %13 = load i32, ptr %9, align 4
  %14 = icmp ne i32 %13, 3
  call void @llvm.va_start.p0(ptr nonnull %8)
  call void @_ZNSt10filesystem7__cxx114pathC2IPKcS1_EERKT_NS1_6formatE(ptr noundef nonnull align 8 dereferenceable(40) %10, ptr noundef nonnull align 8 dereferenceable(8) %7, i8 noundef zeroext 2)
  invoke void @_Z16gmx_fatal_mpi_vaiRKNSt10filesystem7__cxx114pathEibbPKcP13__va_list_tag(i32 noundef %0, ptr noundef nonnull align 8 dereferenceable(40) %10, i32 noundef %2, i1 noundef zeroext %4, i1 noundef zeroext %14, ptr noundef %5, ptr noundef nonnull %8) #16
          to label %15 unwind label %16

15:                                               ; preds = %6
  unreachable

16:                                               ; preds = %6
  %17 = landingpad { ptr, i32 }
          cleanup
  %18 = getelementptr inbounds i8, ptr %10, i64 32
  %19 = load ptr, ptr %18, align 8
  %.not.i.i.i = icmp eq ptr %19, null
  br i1 %.not.i.i.i, label %_ZNSt10filesystem7__cxx114pathD2Ev.exit, label %20

20:                                               ; preds = %16
  call void @_ZNKSt10filesystem7__cxx114path5_List13_Impl_deleterclEPNS2_5_ImplE(ptr noundef nonnull align 1 dereferenceable(1) %18, ptr noundef nonnull %19) #17
  br label %_ZNSt10filesystem7__cxx114pathD2Ev.exit

_ZNSt10filesystem7__cxx114pathD2Ev.exit:          ; preds = %16, %20
  store ptr null, ptr %18, align 8
  call void @_ZNSt7__cxx1112basic_stringIcSt11char_traitsIcESaIcEED1Ev(ptr noundef nonnull align 8 dereferenceable(32) %10) #17
  resume { ptr, i32 } %17
}